; Function Attrs: mustprogress ssp uwtable
define hidden void @_ZN6open3d13visualization4glsl17SimpleBlackShader14UnbindGeometryEv(ptr noundef nonnull align 8 dereferenceable(84) %0) unnamed_addr #1 align 2 {
  %2 = getelementptr inbounds nuw i8, ptr %0, i64 33
  %3 = load i8, ptr %2, align 1, !tbaa !24, !range !25, !noundef !26
  %4 = trunc nuw i8 %3 to i1
  br i1 %4, label %5, label %8

5:                                                ; preds = %1
  %6 = load ptr, ptr @__glewDeleteBuffers, align 8, !tbaa !16
  %7 = getelementptr inbounds nuw i8, ptr %0, i64 76
  tail call void %6(i32 noundef 1, ptr noundef nonnull %7)
  store i8 0, ptr %2, align 1, !tbaa !24
  br label %8

8:                                                ; preds = %5, %1
  ret void
}